ARM GAS  C:\Users\Stanciu\AppData\Local\Temp\ccEzQwLU.s 			page 1


   1              		.cpu cortex-m3
   2              		.arch armv7-m
   3              		.fpu softvfp
   4              		.eabi_attribute 20, 1
   5              		.eabi_attribute 21, 1
   6              		.eabi_attribute 23, 3
   7              		.eabi_attribute 24, 1
   8              		.eabi_attribute 25, 1
   9              		.eabi_attribute 26, 1
  10              		.eabi_attribute 30, 1
  11              		.eabi_attribute 34, 1
  12              		.eabi_attribute 18, 4
  13              		.file	"stm32f1xx_hal_msp.c"
  14              		.text
  15              	.Ltext0:
  16              		.cfi_sections	.debug_frame
  17              		.file 1 "Core/Src/stm32f1xx_hal_msp.c"
  18              		.section	.text.HAL_MspInit,"ax",%progbits
  19              		.align	1
  20              		.global	HAL_MspInit
  21              		.syntax unified
  22              		.thumb
  23              		.thumb_func
  25              	HAL_MspInit:
  26              	.LFB65:
   1:Core/Src/stm32f1xx_hal_msp.c **** /* USER CODE BEGIN Header */
   2:Core/Src/stm32f1xx_hal_msp.c **** /**
   3:Core/Src/stm32f1xx_hal_msp.c ****   ******************************************************************************
   4:Core/Src/stm32f1xx_hal_msp.c ****   * @file         stm32f1xx_hal_msp.c
   5:Core/Src/stm32f1xx_hal_msp.c ****   * @brief        This file provides code for the MSP Initialization
   6:Core/Src/stm32f1xx_hal_msp.c ****   *               and de-Initialization codes.
   7:Core/Src/stm32f1xx_hal_msp.c ****   ******************************************************************************
   8:Core/Src/stm32f1xx_hal_msp.c ****   * @attention
   9:Core/Src/stm32f1xx_hal_msp.c ****   *
  10:Core/Src/stm32f1xx_hal_msp.c ****   * Copyright (c) 2024 STMicroelectronics.
  11:Core/Src/stm32f1xx_hal_msp.c ****   * All rights reserved.
  12:Core/Src/stm32f1xx_hal_msp.c ****   *
  13:Core/Src/stm32f1xx_hal_msp.c ****   * This software is licensed under terms that can be found in the LICENSE file
  14:Core/Src/stm32f1xx_hal_msp.c ****   * in the root directory of this software component.
  15:Core/Src/stm32f1xx_hal_msp.c ****   * If no LICENSE file comes with this software, it is provided AS-IS.
  16:Core/Src/stm32f1xx_hal_msp.c ****   *
  17:Core/Src/stm32f1xx_hal_msp.c ****   ******************************************************************************
  18:Core/Src/stm32f1xx_hal_msp.c ****   */
  19:Core/Src/stm32f1xx_hal_msp.c **** /* USER CODE END Header */
  20:Core/Src/stm32f1xx_hal_msp.c **** 
  21:Core/Src/stm32f1xx_hal_msp.c **** /* Includes ------------------------------------------------------------------*/
  22:Core/Src/stm32f1xx_hal_msp.c **** #include "main.h"
  23:Core/Src/stm32f1xx_hal_msp.c **** 
  24:Core/Src/stm32f1xx_hal_msp.c **** /* USER CODE BEGIN Includes */
  25:Core/Src/stm32f1xx_hal_msp.c **** 
  26:Core/Src/stm32f1xx_hal_msp.c **** /* USER CODE END Includes */
  27:Core/Src/stm32f1xx_hal_msp.c **** 
  28:Core/Src/stm32f1xx_hal_msp.c **** /* Private typedef -----------------------------------------------------------*/
  29:Core/Src/stm32f1xx_hal_msp.c **** /* USER CODE BEGIN TD */
  30:Core/Src/stm32f1xx_hal_msp.c **** 
  31:Core/Src/stm32f1xx_hal_msp.c **** /* USER CODE END TD */
  32:Core/Src/stm32f1xx_hal_msp.c **** 
ARM GAS  C:\Users\Stanciu\AppData\Local\Temp\ccEzQwLU.s 			page 2


  33:Core/Src/stm32f1xx_hal_msp.c **** /* Private define ------------------------------------------------------------*/
  34:Core/Src/stm32f1xx_hal_msp.c **** /* USER CODE BEGIN Define */
  35:Core/Src/stm32f1xx_hal_msp.c **** 
  36:Core/Src/stm32f1xx_hal_msp.c **** /* USER CODE END Define */
  37:Core/Src/stm32f1xx_hal_msp.c **** 
  38:Core/Src/stm32f1xx_hal_msp.c **** /* Private macro -------------------------------------------------------------*/
  39:Core/Src/stm32f1xx_hal_msp.c **** /* USER CODE BEGIN Macro */
  40:Core/Src/stm32f1xx_hal_msp.c **** 
  41:Core/Src/stm32f1xx_hal_msp.c **** /* USER CODE END Macro */
  42:Core/Src/stm32f1xx_hal_msp.c **** 
  43:Core/Src/stm32f1xx_hal_msp.c **** /* Private variables ---------------------------------------------------------*/
  44:Core/Src/stm32f1xx_hal_msp.c **** /* USER CODE BEGIN PV */
  45:Core/Src/stm32f1xx_hal_msp.c **** 
  46:Core/Src/stm32f1xx_hal_msp.c **** /* USER CODE END PV */
  47:Core/Src/stm32f1xx_hal_msp.c **** 
  48:Core/Src/stm32f1xx_hal_msp.c **** /* Private function prototypes -----------------------------------------------*/
  49:Core/Src/stm32f1xx_hal_msp.c **** /* USER CODE BEGIN PFP */
  50:Core/Src/stm32f1xx_hal_msp.c **** 
  51:Core/Src/stm32f1xx_hal_msp.c **** /* USER CODE END PFP */
  52:Core/Src/stm32f1xx_hal_msp.c **** 
  53:Core/Src/stm32f1xx_hal_msp.c **** /* External functions --------------------------------------------------------*/
  54:Core/Src/stm32f1xx_hal_msp.c **** /* USER CODE BEGIN ExternalFunctions */
  55:Core/Src/stm32f1xx_hal_msp.c **** 
  56:Core/Src/stm32f1xx_hal_msp.c **** /* USER CODE END ExternalFunctions */
  57:Core/Src/stm32f1xx_hal_msp.c **** 
  58:Core/Src/stm32f1xx_hal_msp.c **** /* USER CODE BEGIN 0 */
  59:Core/Src/stm32f1xx_hal_msp.c **** 
  60:Core/Src/stm32f1xx_hal_msp.c **** /* USER CODE END 0 */
  61:Core/Src/stm32f1xx_hal_msp.c **** 
  62:Core/Src/stm32f1xx_hal_msp.c **** void HAL_TIM_MspPostInit(TIM_HandleTypeDef *htim);
  63:Core/Src/stm32f1xx_hal_msp.c ****                     /**
  64:Core/Src/stm32f1xx_hal_msp.c ****   * Initializes the Global MSP.
  65:Core/Src/stm32f1xx_hal_msp.c ****   */
  66:Core/Src/stm32f1xx_hal_msp.c **** void HAL_MspInit(void)
  67:Core/Src/stm32f1xx_hal_msp.c **** {
  27              		.loc 1 67 1 view -0
  28              		.cfi_startproc
  29              		@ args = 0, pretend = 0, frame = 8
  30              		@ frame_needed = 0, uses_anonymous_args = 0
  31              		@ link register save eliminated.
  32 0000 82B0     		sub	sp, sp, #8
  33              	.LCFI0:
  34              		.cfi_def_cfa_offset 8
  68:Core/Src/stm32f1xx_hal_msp.c ****   /* USER CODE BEGIN MspInit 0 */
  69:Core/Src/stm32f1xx_hal_msp.c **** 
  70:Core/Src/stm32f1xx_hal_msp.c ****   /* USER CODE END MspInit 0 */
  71:Core/Src/stm32f1xx_hal_msp.c **** 
  72:Core/Src/stm32f1xx_hal_msp.c ****   __HAL_RCC_AFIO_CLK_ENABLE();
  35              		.loc 1 72 3 view .LVU1
  36              	.LBB2:
  37              		.loc 1 72 3 view .LVU2
  38              		.loc 1 72 3 view .LVU3
  39 0002 0E4B     		ldr	r3, .L3
  40 0004 9A69     		ldr	r2, [r3, #24]
  41 0006 42F00102 		orr	r2, r2, #1
  42 000a 9A61     		str	r2, [r3, #24]
  43              		.loc 1 72 3 view .LVU4
ARM GAS  C:\Users\Stanciu\AppData\Local\Temp\ccEzQwLU.s 			page 3


  44 000c 9A69     		ldr	r2, [r3, #24]
  45 000e 02F00102 		and	r2, r2, #1
  46 0012 0092     		str	r2, [sp]
  47              		.loc 1 72 3 view .LVU5
  48 0014 009A     		ldr	r2, [sp]
  49              	.LBE2:
  50              		.loc 1 72 3 view .LVU6
  73:Core/Src/stm32f1xx_hal_msp.c ****   __HAL_RCC_PWR_CLK_ENABLE();
  51              		.loc 1 73 3 view .LVU7
  52              	.LBB3:
  53              		.loc 1 73 3 view .LVU8
  54              		.loc 1 73 3 view .LVU9
  55 0016 DA69     		ldr	r2, [r3, #28]
  56 0018 42F08052 		orr	r2, r2, #268435456
  57 001c DA61     		str	r2, [r3, #28]
  58              		.loc 1 73 3 view .LVU10
  59 001e DB69     		ldr	r3, [r3, #28]
  60 0020 03F08053 		and	r3, r3, #268435456
  61 0024 0193     		str	r3, [sp, #4]
  62              		.loc 1 73 3 view .LVU11
  63 0026 019B     		ldr	r3, [sp, #4]
  64              	.LBE3:
  65              		.loc 1 73 3 view .LVU12
  74:Core/Src/stm32f1xx_hal_msp.c **** 
  75:Core/Src/stm32f1xx_hal_msp.c ****   /* System interrupt init*/
  76:Core/Src/stm32f1xx_hal_msp.c **** 
  77:Core/Src/stm32f1xx_hal_msp.c ****   /** NOOU / CORECT: Activăm doar SW-DP (Serial Wire Debug) și eliberăm pinii JTAG nefolosiți.
  78:Core/Src/stm32f1xx_hal_msp.c ****     * Aceasta este setarea corectă pentru Blue Pill care NU blochează procesorul!
  79:Core/Src/stm32f1xx_hal_msp.c ****     */
  80:Core/Src/stm32f1xx_hal_msp.c ****   __HAL_AFIO_REMAP_SWJ_NOJTAG();
  66              		.loc 1 80 3 view .LVU13
  67              	.LBB4:
  68              		.loc 1 80 3 view .LVU14
  69 0028 054A     		ldr	r2, .L3+4
  70 002a 5368     		ldr	r3, [r2, #4]
  71              	.LVL0:
  72              		.loc 1 80 3 view .LVU15
  73 002c 23F0E063 		bic	r3, r3, #117440512
  74              	.LVL1:
  75              		.loc 1 80 3 view .LVU16
  76 0030 43F00073 		orr	r3, r3, #33554432
  77              	.LVL2:
  78              		.loc 1 80 3 view .LVU17
  79 0034 5360     		str	r3, [r2, #4]
  80              	.LBE4:
  81              		.loc 1 80 3 view .LVU18
  81:Core/Src/stm32f1xx_hal_msp.c **** 
  82:Core/Src/stm32f1xx_hal_msp.c ****   /* USER CODE BEGIN MspInit 1 */
  83:Core/Src/stm32f1xx_hal_msp.c **** 
  84:Core/Src/stm32f1xx_hal_msp.c ****   /* USER CODE END MspInit 1 */
  85:Core/Src/stm32f1xx_hal_msp.c **** }
  82              		.loc 1 85 1 is_stmt 0 view .LVU19
  83 0036 02B0     		add	sp, sp, #8
  84              	.LCFI1:
  85              		.cfi_def_cfa_offset 0
  86              		@ sp needed
  87 0038 7047     		bx	lr
ARM GAS  C:\Users\Stanciu\AppData\Local\Temp\ccEzQwLU.s 			page 4


  88              	.L4:
  89 003a 00BF     		.align	2
  90              	.L3:
  91 003c 00100240 		.word	1073876992
  92 0040 00000140 		.word	1073807360
  93              		.cfi_endproc
  94              	.LFE65:
  96              		.section	.text.HAL_TIM_Base_MspInit,"ax",%progbits
  97              		.align	1
  98              		.global	HAL_TIM_Base_MspInit
  99              		.syntax unified
 100              		.thumb
 101              		.thumb_func
 103              	HAL_TIM_Base_MspInit:
 104              	.LVL3:
 105              	.LFB66:
  86:Core/Src/stm32f1xx_hal_msp.c **** 
  87:Core/Src/stm32f1xx_hal_msp.c **** /**
  88:Core/Src/stm32f1xx_hal_msp.c **** * @brief TIM_Base MSP Initialization
  89:Core/Src/stm32f1xx_hal_msp.c **** * This function configures the hardware resources used in this example
  90:Core/Src/stm32f1xx_hal_msp.c **** * @param htim_base: TIM_Base handle pointer
  91:Core/Src/stm32f1xx_hal_msp.c **** * @retval None
  92:Core/Src/stm32f1xx_hal_msp.c **** */
  93:Core/Src/stm32f1xx_hal_msp.c **** void HAL_TIM_Base_MspInit(TIM_HandleTypeDef* htim_base)
  94:Core/Src/stm32f1xx_hal_msp.c **** {
 106              		.loc 1 94 1 is_stmt 1 view -0
 107              		.cfi_startproc
 108              		@ args = 0, pretend = 0, frame = 8
 109              		@ frame_needed = 0, uses_anonymous_args = 0
  95:Core/Src/stm32f1xx_hal_msp.c ****   if(htim_base->Instance==TIM2)
 110              		.loc 1 95 3 view .LVU21
 111              		.loc 1 95 15 is_stmt 0 view .LVU22
 112 0000 0368     		ldr	r3, [r0]
 113              		.loc 1 95 5 view .LVU23
 114 0002 B3F1804F 		cmp	r3, #1073741824
 115 0006 00D0     		beq	.L11
 116 0008 7047     		bx	lr
 117              	.L11:
  94:Core/Src/stm32f1xx_hal_msp.c ****   if(htim_base->Instance==TIM2)
 118              		.loc 1 94 1 view .LVU24
 119 000a 00B5     		push	{lr}
 120              	.LCFI2:
 121              		.cfi_def_cfa_offset 4
 122              		.cfi_offset 14, -4
 123 000c 83B0     		sub	sp, sp, #12
 124              	.LCFI3:
 125              		.cfi_def_cfa_offset 16
  96:Core/Src/stm32f1xx_hal_msp.c ****   {
  97:Core/Src/stm32f1xx_hal_msp.c ****   /* USER CODE BEGIN TIM2_MspInit 0 */
  98:Core/Src/stm32f1xx_hal_msp.c **** 
  99:Core/Src/stm32f1xx_hal_msp.c ****   /* USER CODE END TIM2_MspInit 0 */
 100:Core/Src/stm32f1xx_hal_msp.c ****     /* Peripheral clock enable */
 101:Core/Src/stm32f1xx_hal_msp.c ****     __HAL_RCC_TIM2_CLK_ENABLE();
 126              		.loc 1 101 5 is_stmt 1 view .LVU25
 127              	.LBB5:
 128              		.loc 1 101 5 view .LVU26
 129              		.loc 1 101 5 view .LVU27
ARM GAS  C:\Users\Stanciu\AppData\Local\Temp\ccEzQwLU.s 			page 5


 130 000e 03F50433 		add	r3, r3, #135168
 131 0012 DA69     		ldr	r2, [r3, #28]
 132 0014 42F00102 		orr	r2, r2, #1
 133 0018 DA61     		str	r2, [r3, #28]
 134              		.loc 1 101 5 view .LVU28
 135 001a DB69     		ldr	r3, [r3, #28]
 136 001c 03F00103 		and	r3, r3, #1
 137 0020 0193     		str	r3, [sp, #4]
 138              		.loc 1 101 5 view .LVU29
 139 0022 019B     		ldr	r3, [sp, #4]
 140              	.LBE5:
 141              		.loc 1 101 5 view .LVU30
 102:Core/Src/stm32f1xx_hal_msp.c ****     /* TIM2 interrupt Init */
 103:Core/Src/stm32f1xx_hal_msp.c ****     HAL_NVIC_SetPriority(TIM2_IRQn, 0, 0);
 142              		.loc 1 103 5 view .LVU31
 143 0024 0022     		movs	r2, #0
 144 0026 1146     		mov	r1, r2
 145 0028 1C20     		movs	r0, #28
 146              	.LVL4:
 147              		.loc 1 103 5 is_stmt 0 view .LVU32
 148 002a FFF7FEFF 		bl	HAL_NVIC_SetPriority
 149              	.LVL5:
 104:Core/Src/stm32f1xx_hal_msp.c ****     HAL_NVIC_EnableIRQ(TIM2_IRQn);
 150              		.loc 1 104 5 is_stmt 1 view .LVU33
 151 002e 1C20     		movs	r0, #28
 152 0030 FFF7FEFF 		bl	HAL_NVIC_EnableIRQ
 153              	.LVL6:
 105:Core/Src/stm32f1xx_hal_msp.c ****   /* USER CODE BEGIN TIM2_MspInit 1 */
 106:Core/Src/stm32f1xx_hal_msp.c **** 
 107:Core/Src/stm32f1xx_hal_msp.c ****   /* USER CODE END TIM2_MspInit 1 */
 108:Core/Src/stm32f1xx_hal_msp.c ****   }
 109:Core/Src/stm32f1xx_hal_msp.c **** 
 110:Core/Src/stm32f1xx_hal_msp.c **** }
 154              		.loc 1 110 1 is_stmt 0 view .LVU34
 155 0034 03B0     		add	sp, sp, #12
 156              	.LCFI4:
 157              		.cfi_def_cfa_offset 4
 158              		@ sp needed
 159 0036 00BD     		pop	{pc}
 160              		.cfi_endproc
 161              	.LFE66:
 163              		.section	.text.HAL_TIM_MspPostInit,"ax",%progbits
 164              		.align	1
 165              		.global	HAL_TIM_MspPostInit
 166              		.syntax unified
 167              		.thumb
 168              		.thumb_func
 170              	HAL_TIM_MspPostInit:
 171              	.LVL7:
 172              	.LFB67:
 111:Core/Src/stm32f1xx_hal_msp.c **** 
 112:Core/Src/stm32f1xx_hal_msp.c **** void HAL_TIM_MspPostInit(TIM_HandleTypeDef* htim)
 113:Core/Src/stm32f1xx_hal_msp.c **** {
 173              		.loc 1 113 1 is_stmt 1 view -0
 174              		.cfi_startproc
 175              		@ args = 0, pretend = 0, frame = 24
 176              		@ frame_needed = 0, uses_anonymous_args = 0
ARM GAS  C:\Users\Stanciu\AppData\Local\Temp\ccEzQwLU.s 			page 6


 177              		.loc 1 113 1 is_stmt 0 view .LVU36
 178 0000 00B5     		push	{lr}
 179              	.LCFI5:
 180              		.cfi_def_cfa_offset 4
 181              		.cfi_offset 14, -4
 182 0002 87B0     		sub	sp, sp, #28
 183              	.LCFI6:
 184              		.cfi_def_cfa_offset 32
 114:Core/Src/stm32f1xx_hal_msp.c ****   GPIO_InitTypeDef GPIO_InitStruct = {0};
 185              		.loc 1 114 3 is_stmt 1 view .LVU37
 186              		.loc 1 114 20 is_stmt 0 view .LVU38
 187 0004 0023     		movs	r3, #0
 188 0006 0293     		str	r3, [sp, #8]
 189 0008 0393     		str	r3, [sp, #12]
 190 000a 0493     		str	r3, [sp, #16]
 191 000c 0593     		str	r3, [sp, #20]
 115:Core/Src/stm32f1xx_hal_msp.c ****   if(htim->Instance==TIM2)
 192              		.loc 1 115 3 is_stmt 1 view .LVU39
 193              		.loc 1 115 10 is_stmt 0 view .LVU40
 194 000e 0368     		ldr	r3, [r0]
 195              		.loc 1 115 5 view .LVU41
 196 0010 B3F1804F 		cmp	r3, #1073741824
 197 0014 01D0     		beq	.L15
 198              	.LVL8:
 199              	.L12:
 116:Core/Src/stm32f1xx_hal_msp.c ****   {
 117:Core/Src/stm32f1xx_hal_msp.c ****   /* USER CODE BEGIN TIM2_MspPostInit 0 */
 118:Core/Src/stm32f1xx_hal_msp.c **** 
 119:Core/Src/stm32f1xx_hal_msp.c ****   /* USER CODE END TIM2_MspPostInit 0 */
 120:Core/Src/stm32f1xx_hal_msp.c **** 
 121:Core/Src/stm32f1xx_hal_msp.c ****     __HAL_RCC_GPIOA_CLK_ENABLE();
 122:Core/Src/stm32f1xx_hal_msp.c ****     /**TIM2 GPIO Configuration
 123:Core/Src/stm32f1xx_hal_msp.c ****     PA0-WKUP     ------> TIM2_CH1
 124:Core/Src/stm32f1xx_hal_msp.c ****     */
 125:Core/Src/stm32f1xx_hal_msp.c ****     GPIO_InitStruct.Pin = GPIO_PIN_0;
 126:Core/Src/stm32f1xx_hal_msp.c ****     GPIO_InitStruct.Mode = GPIO_MODE_AF_PP;
 127:Core/Src/stm32f1xx_hal_msp.c ****     GPIO_InitStruct.Speed = GPIO_SPEED_FREQ_LOW;
 128:Core/Src/stm32f1xx_hal_msp.c ****     HAL_GPIO_Init(GPIOA, &GPIO_InitStruct);
 129:Core/Src/stm32f1xx_hal_msp.c **** 
 130:Core/Src/stm32f1xx_hal_msp.c ****   /* USER CODE BEGIN TIM2_MspPostInit 1 */
 131:Core/Src/stm32f1xx_hal_msp.c **** 
 132:Core/Src/stm32f1xx_hal_msp.c ****   /* USER CODE END TIM2_MspPostInit 1 */
 133:Core/Src/stm32f1xx_hal_msp.c ****   }
 134:Core/Src/stm32f1xx_hal_msp.c **** 
 135:Core/Src/stm32f1xx_hal_msp.c **** }
 200              		.loc 1 135 1 view .LVU42
 201 0016 07B0     		add	sp, sp, #28
 202              	.LCFI7:
 203              		.cfi_remember_state
 204              		.cfi_def_cfa_offset 4
 205              		@ sp needed
 206 0018 00BD     		pop	{pc}
 207              	.LVL9:
 208              	.L15:
 209              	.LCFI8:
 210              		.cfi_restore_state
 121:Core/Src/stm32f1xx_hal_msp.c ****     /**TIM2 GPIO Configuration
ARM GAS  C:\Users\Stanciu\AppData\Local\Temp\ccEzQwLU.s 			page 7


 211              		.loc 1 121 5 is_stmt 1 view .LVU43
 212              	.LBB6:
 121:Core/Src/stm32f1xx_hal_msp.c ****     /**TIM2 GPIO Configuration
 213              		.loc 1 121 5 view .LVU44
 121:Core/Src/stm32f1xx_hal_msp.c ****     /**TIM2 GPIO Configuration
 214              		.loc 1 121 5 view .LVU45
 215 001a 03F50433 		add	r3, r3, #135168
 216 001e 9A69     		ldr	r2, [r3, #24]
 217 0020 42F00402 		orr	r2, r2, #4
 218 0024 9A61     		str	r2, [r3, #24]
 121:Core/Src/stm32f1xx_hal_msp.c ****     /**TIM2 GPIO Configuration
 219              		.loc 1 121 5 view .LVU46
 220 0026 9B69     		ldr	r3, [r3, #24]
 221 0028 03F00403 		and	r3, r3, #4
 222 002c 0193     		str	r3, [sp, #4]
 121:Core/Src/stm32f1xx_hal_msp.c ****     /**TIM2 GPIO Configuration
 223              		.loc 1 121 5 view .LVU47
 224 002e 019B     		ldr	r3, [sp, #4]
 225              	.LBE6:
 121:Core/Src/stm32f1xx_hal_msp.c ****     /**TIM2 GPIO Configuration
 226              		.loc 1 121 5 view .LVU48
 125:Core/Src/stm32f1xx_hal_msp.c ****     GPIO_InitStruct.Mode = GPIO_MODE_AF_PP;
 227              		.loc 1 125 5 view .LVU49
 125:Core/Src/stm32f1xx_hal_msp.c ****     GPIO_InitStruct.Mode = GPIO_MODE_AF_PP;
 228              		.loc 1 125 25 is_stmt 0 view .LVU50
 229 0030 0123     		movs	r3, #1
 230 0032 0293     		str	r3, [sp, #8]
 126:Core/Src/stm32f1xx_hal_msp.c ****     GPIO_InitStruct.Speed = GPIO_SPEED_FREQ_LOW;
 231              		.loc 1 126 5 is_stmt 1 view .LVU51
 126:Core/Src/stm32f1xx_hal_msp.c ****     GPIO_InitStruct.Speed = GPIO_SPEED_FREQ_LOW;
 232              		.loc 1 126 26 is_stmt 0 view .LVU52
 233 0034 0223     		movs	r3, #2
 234 0036 0393     		str	r3, [sp, #12]
 127:Core/Src/stm32f1xx_hal_msp.c ****     HAL_GPIO_Init(GPIOA, &GPIO_InitStruct);
 235              		.loc 1 127 5 is_stmt 1 view .LVU53
 127:Core/Src/stm32f1xx_hal_msp.c ****     HAL_GPIO_Init(GPIOA, &GPIO_InitStruct);
 236              		.loc 1 127 27 is_stmt 0 view .LVU54
 237 0038 0593     		str	r3, [sp, #20]
 128:Core/Src/stm32f1xx_hal_msp.c **** 
 238              		.loc 1 128 5 is_stmt 1 view .LVU55
 239 003a 02A9     		add	r1, sp, #8
 240 003c 0148     		ldr	r0, .L16
 241              	.LVL10:
 128:Core/Src/stm32f1xx_hal_msp.c **** 
 242              		.loc 1 128 5 is_stmt 0 view .LVU56
 243 003e FFF7FEFF 		bl	HAL_GPIO_Init
 244              	.LVL11:
 245              		.loc 1 135 1 view .LVU57
 246 0042 E8E7     		b	.L12
 247              	.L17:
 248              		.align	2
 249              	.L16:
 250 0044 00080140 		.word	1073809408
 251              		.cfi_endproc
 252              	.LFE67:
 254              		.section	.text.HAL_TIM_Base_MspDeInit,"ax",%progbits
 255              		.align	1
ARM GAS  C:\Users\Stanciu\AppData\Local\Temp\ccEzQwLU.s 			page 8


 256              		.global	HAL_TIM_Base_MspDeInit
 257              		.syntax unified
 258              		.thumb
 259              		.thumb_func
 261              	HAL_TIM_Base_MspDeInit:
 262              	.LVL12:
 263              	.LFB68:
 136:Core/Src/stm32f1xx_hal_msp.c **** /**
 137:Core/Src/stm32f1xx_hal_msp.c **** * @brief TIM_Base MSP De-Initialization
 138:Core/Src/stm32f1xx_hal_msp.c **** * This function freeze the hardware resources used in this example
 139:Core/Src/stm32f1xx_hal_msp.c **** * @param htim_base: TIM_Base handle pointer
 140:Core/Src/stm32f1xx_hal_msp.c **** * @retval None
 141:Core/Src/stm32f1xx_hal_msp.c **** */
 142:Core/Src/stm32f1xx_hal_msp.c **** void HAL_TIM_Base_MspDeInit(TIM_HandleTypeDef* htim_base)
 143:Core/Src/stm32f1xx_hal_msp.c **** {
 264              		.loc 1 143 1 is_stmt 1 view -0
 265              		.cfi_startproc
 266              		@ args = 0, pretend = 0, frame = 0
 267              		@ frame_needed = 0, uses_anonymous_args = 0
 268              		.loc 1 143 1 is_stmt 0 view .LVU59
 269 0000 08B5     		push	{r3, lr}
 270              	.LCFI9:
 271              		.cfi_def_cfa_offset 8
 272              		.cfi_offset 3, -8
 273              		.cfi_offset 14, -4
 144:Core/Src/stm32f1xx_hal_msp.c ****   if(htim_base->Instance==TIM2)
 274              		.loc 1 144 3 is_stmt 1 view .LVU60
 275              		.loc 1 144 15 is_stmt 0 view .LVU61
 276 0002 0368     		ldr	r3, [r0]
 277              		.loc 1 144 5 view .LVU62
 278 0004 B3F1804F 		cmp	r3, #1073741824
 279 0008 00D0     		beq	.L21
 280              	.LVL13:
 281              	.L18:
 145:Core/Src/stm32f1xx_hal_msp.c ****   {
 146:Core/Src/stm32f1xx_hal_msp.c ****   /* USER CODE BEGIN TIM2_MspDeInit 0 */
 147:Core/Src/stm32f1xx_hal_msp.c **** 
 148:Core/Src/stm32f1xx_hal_msp.c ****   /* USER CODE END TIM2_MspDeInit 0 */
 149:Core/Src/stm32f1xx_hal_msp.c ****     /* Peripheral clock disable */
 150:Core/Src/stm32f1xx_hal_msp.c ****     __HAL_RCC_TIM2_CLK_DISABLE();
 151:Core/Src/stm32f1xx_hal_msp.c **** 
 152:Core/Src/stm32f1xx_hal_msp.c ****     /* TIM2 interrupt DeInit */
 153:Core/Src/stm32f1xx_hal_msp.c ****     HAL_NVIC_DisableIRQ(TIM2_IRQn);
 154:Core/Src/stm32f1xx_hal_msp.c ****   /* USER CODE BEGIN TIM2_MspDeInit 1 */
 155:Core/Src/stm32f1xx_hal_msp.c **** 
 156:Core/Src/stm32f1xx_hal_msp.c ****   /* USER CODE END TIM2_MspDeInit 1 */
 157:Core/Src/stm32f1xx_hal_msp.c ****   }
 158:Core/Src/stm32f1xx_hal_msp.c **** 
 159:Core/Src/stm32f1xx_hal_msp.c **** }
 282              		.loc 1 159 1 view .LVU63
 283 000a 08BD     		pop	{r3, pc}
 284              	.LVL14:
 285              	.L21:
 150:Core/Src/stm32f1xx_hal_msp.c **** 
 286              		.loc 1 150 5 is_stmt 1 view .LVU64
 287 000c 044A     		ldr	r2, .L22
 288 000e D369     		ldr	r3, [r2, #28]
ARM GAS  C:\Users\Stanciu\AppData\Local\Temp\ccEzQwLU.s 			page 9


 289 0010 23F00103 		bic	r3, r3, #1
 290 0014 D361     		str	r3, [r2, #28]
 153:Core/Src/stm32f1xx_hal_msp.c ****   /* USER CODE BEGIN TIM2_MspDeInit 1 */
 291              		.loc 1 153 5 view .LVU65
 292 0016 1C20     		movs	r0, #28
 293              	.LVL15:
 153:Core/Src/stm32f1xx_hal_msp.c ****   /* USER CODE BEGIN TIM2_MspDeInit 1 */
 294              		.loc 1 153 5 is_stmt 0 view .LVU66
 295 0018 FFF7FEFF 		bl	HAL_NVIC_DisableIRQ
 296              	.LVL16:
 297              		.loc 1 159 1 view .LVU67
 298 001c F5E7     		b	.L18
 299              	.L23:
 300 001e 00BF     		.align	2
 301              	.L22:
 302 0020 00100240 		.word	1073876992
 303              		.cfi_endproc
 304              	.LFE68:
 306              		.section	.text.HAL_UART_MspInit,"ax",%progbits
 307              		.align	1
 308              		.global	HAL_UART_MspInit
 309              		.syntax unified
 310              		.thumb
 311              		.thumb_func
 313              	HAL_UART_MspInit:
 314              	.LVL17:
 315              	.LFB69:
 160:Core/Src/stm32f1xx_hal_msp.c **** 
 161:Core/Src/stm32f1xx_hal_msp.c **** /**
 162:Core/Src/stm32f1xx_hal_msp.c **** * @brief UART MSP Initialization
 163:Core/Src/stm32f1xx_hal_msp.c **** * This function configures the hardware resources used in this example
 164:Core/Src/stm32f1xx_hal_msp.c **** * @param huart: UART handle pointer
 165:Core/Src/stm32f1xx_hal_msp.c **** * @retval None
 166:Core/Src/stm32f1xx_hal_msp.c **** */
 167:Core/Src/stm32f1xx_hal_msp.c **** void HAL_UART_MspInit(UART_HandleTypeDef* huart)
 168:Core/Src/stm32f1xx_hal_msp.c **** {
 316              		.loc 1 168 1 is_stmt 1 view -0
 317              		.cfi_startproc
 318              		@ args = 0, pretend = 0, frame = 24
 319              		@ frame_needed = 0, uses_anonymous_args = 0
 320              		.loc 1 168 1 is_stmt 0 view .LVU69
 321 0000 70B5     		push	{r4, r5, r6, lr}
 322              	.LCFI10:
 323              		.cfi_def_cfa_offset 16
 324              		.cfi_offset 4, -16
 325              		.cfi_offset 5, -12
 326              		.cfi_offset 6, -8
 327              		.cfi_offset 14, -4
 328 0002 86B0     		sub	sp, sp, #24
 329              	.LCFI11:
 330              		.cfi_def_cfa_offset 40
 169:Core/Src/stm32f1xx_hal_msp.c ****   GPIO_InitTypeDef GPIO_InitStruct = {0};
 331              		.loc 1 169 3 is_stmt 1 view .LVU70
 332              		.loc 1 169 20 is_stmt 0 view .LVU71
 333 0004 0023     		movs	r3, #0
 334 0006 0293     		str	r3, [sp, #8]
 335 0008 0393     		str	r3, [sp, #12]
ARM GAS  C:\Users\Stanciu\AppData\Local\Temp\ccEzQwLU.s 			page 10


 336 000a 0493     		str	r3, [sp, #16]
 337 000c 0593     		str	r3, [sp, #20]
 170:Core/Src/stm32f1xx_hal_msp.c ****   if(huart->Instance==USART1)
 338              		.loc 1 170 3 is_stmt 1 view .LVU72
 339              		.loc 1 170 11 is_stmt 0 view .LVU73
 340 000e 0268     		ldr	r2, [r0]
 341              		.loc 1 170 5 view .LVU74
 342 0010 1C4B     		ldr	r3, .L28
 343 0012 9A42     		cmp	r2, r3
 344 0014 01D0     		beq	.L27
 345              	.LVL18:
 346              	.L24:
 171:Core/Src/stm32f1xx_hal_msp.c ****   {
 172:Core/Src/stm32f1xx_hal_msp.c ****   /* USER CODE BEGIN USART1_MspInit 0 */
 173:Core/Src/stm32f1xx_hal_msp.c **** 
 174:Core/Src/stm32f1xx_hal_msp.c ****   /* USER CODE END USART1_MspInit 0 */
 175:Core/Src/stm32f1xx_hal_msp.c ****     /* Peripheral clock enable */
 176:Core/Src/stm32f1xx_hal_msp.c ****     __HAL_RCC_USART1_CLK_ENABLE();
 177:Core/Src/stm32f1xx_hal_msp.c **** 
 178:Core/Src/stm32f1xx_hal_msp.c ****     __HAL_RCC_GPIOA_CLK_ENABLE();
 179:Core/Src/stm32f1xx_hal_msp.c ****     /**USART1 GPIO Configuration
 180:Core/Src/stm32f1xx_hal_msp.c ****     PA9     ------> USART1_TX
 181:Core/Src/stm32f1xx_hal_msp.c ****     PA10     ------> USART1_RX
 182:Core/Src/stm32f1xx_hal_msp.c ****     */
 183:Core/Src/stm32f1xx_hal_msp.c ****     GPIO_InitStruct.Pin = GPIO_PIN_9;
 184:Core/Src/stm32f1xx_hal_msp.c ****     GPIO_InitStruct.Mode = GPIO_MODE_AF_PP;
 185:Core/Src/stm32f1xx_hal_msp.c ****     GPIO_InitStruct.Speed = GPIO_SPEED_FREQ_HIGH;
 186:Core/Src/stm32f1xx_hal_msp.c ****     HAL_GPIO_Init(GPIOA, &GPIO_InitStruct);
 187:Core/Src/stm32f1xx_hal_msp.c **** 
 188:Core/Src/stm32f1xx_hal_msp.c ****     GPIO_InitStruct.Pin = GPIO_PIN_10;
 189:Core/Src/stm32f1xx_hal_msp.c ****     GPIO_InitStruct.Mode = GPIO_MODE_INPUT;
 190:Core/Src/stm32f1xx_hal_msp.c ****     GPIO_InitStruct.Pull = GPIO_NOPULL;
 191:Core/Src/stm32f1xx_hal_msp.c ****     HAL_GPIO_Init(GPIOA, &GPIO_InitStruct);
 192:Core/Src/stm32f1xx_hal_msp.c **** 
 193:Core/Src/stm32f1xx_hal_msp.c ****     /* USART1 interrupt Init */
 194:Core/Src/stm32f1xx_hal_msp.c ****     HAL_NVIC_SetPriority(USART1_IRQn, 0, 0);
 195:Core/Src/stm32f1xx_hal_msp.c ****     HAL_NVIC_EnableIRQ(USART1_IRQn);
 196:Core/Src/stm32f1xx_hal_msp.c ****   /* USER CODE BEGIN USART1_MspInit 1 */
 197:Core/Src/stm32f1xx_hal_msp.c **** 
 198:Core/Src/stm32f1xx_hal_msp.c ****   /* USER CODE END USART1_MspInit 1 */
 199:Core/Src/stm32f1xx_hal_msp.c ****   }
 200:Core/Src/stm32f1xx_hal_msp.c **** 
 201:Core/Src/stm32f1xx_hal_msp.c **** }
 347              		.loc 1 201 1 view .LVU75
 348 0016 06B0     		add	sp, sp, #24
 349              	.LCFI12:
 350              		.cfi_remember_state
 351              		.cfi_def_cfa_offset 16
 352              		@ sp needed
 353 0018 70BD     		pop	{r4, r5, r6, pc}
 354              	.LVL19:
 355              	.L27:
 356              	.LCFI13:
 357              		.cfi_restore_state
 176:Core/Src/stm32f1xx_hal_msp.c **** 
 358              		.loc 1 176 5 is_stmt 1 view .LVU76
 359              	.LBB7:
ARM GAS  C:\Users\Stanciu\AppData\Local\Temp\ccEzQwLU.s 			page 11


 176:Core/Src/stm32f1xx_hal_msp.c **** 
 360              		.loc 1 176 5 view .LVU77
 176:Core/Src/stm32f1xx_hal_msp.c **** 
 361              		.loc 1 176 5 view .LVU78
 362 001a 03F55843 		add	r3, r3, #55296
 363 001e 9A69     		ldr	r2, [r3, #24]
 364 0020 42F48042 		orr	r2, r2, #16384
 365 0024 9A61     		str	r2, [r3, #24]
 176:Core/Src/stm32f1xx_hal_msp.c **** 
 366              		.loc 1 176 5 view .LVU79
 367 0026 9A69     		ldr	r2, [r3, #24]
 368 0028 02F48042 		and	r2, r2, #16384
 369 002c 0092     		str	r2, [sp]
 176:Core/Src/stm32f1xx_hal_msp.c **** 
 370              		.loc 1 176 5 view .LVU80
 371 002e 009A     		ldr	r2, [sp]
 372              	.LBE7:
 176:Core/Src/stm32f1xx_hal_msp.c **** 
 373              		.loc 1 176 5 view .LVU81
 178:Core/Src/stm32f1xx_hal_msp.c ****     /**USART1 GPIO Configuration
 374              		.loc 1 178 5 view .LVU82
 375              	.LBB8:
 178:Core/Src/stm32f1xx_hal_msp.c ****     /**USART1 GPIO Configuration
 376              		.loc 1 178 5 view .LVU83
 178:Core/Src/stm32f1xx_hal_msp.c ****     /**USART1 GPIO Configuration
 377              		.loc 1 178 5 view .LVU84
 378 0030 9A69     		ldr	r2, [r3, #24]
 379 0032 42F00402 		orr	r2, r2, #4
 380 0036 9A61     		str	r2, [r3, #24]
 178:Core/Src/stm32f1xx_hal_msp.c ****     /**USART1 GPIO Configuration
 381              		.loc 1 178 5 view .LVU85
 382 0038 9B69     		ldr	r3, [r3, #24]
 383 003a 03F00403 		and	r3, r3, #4
 384 003e 0193     		str	r3, [sp, #4]
 178:Core/Src/stm32f1xx_hal_msp.c ****     /**USART1 GPIO Configuration
 385              		.loc 1 178 5 view .LVU86
 386 0040 019B     		ldr	r3, [sp, #4]
 387              	.LBE8:
 178:Core/Src/stm32f1xx_hal_msp.c ****     /**USART1 GPIO Configuration
 388              		.loc 1 178 5 view .LVU87
 183:Core/Src/stm32f1xx_hal_msp.c ****     GPIO_InitStruct.Mode = GPIO_MODE_AF_PP;
 389              		.loc 1 183 5 view .LVU88
 183:Core/Src/stm32f1xx_hal_msp.c ****     GPIO_InitStruct.Mode = GPIO_MODE_AF_PP;
 390              		.loc 1 183 25 is_stmt 0 view .LVU89
 391 0042 4FF40073 		mov	r3, #512
 392 0046 0293     		str	r3, [sp, #8]
 184:Core/Src/stm32f1xx_hal_msp.c ****     GPIO_InitStruct.Speed = GPIO_SPEED_FREQ_HIGH;
 393              		.loc 1 184 5 is_stmt 1 view .LVU90
 184:Core/Src/stm32f1xx_hal_msp.c ****     GPIO_InitStruct.Speed = GPIO_SPEED_FREQ_HIGH;
 394              		.loc 1 184 26 is_stmt 0 view .LVU91
 395 0048 0223     		movs	r3, #2
 396 004a 0393     		str	r3, [sp, #12]
 185:Core/Src/stm32f1xx_hal_msp.c ****     HAL_GPIO_Init(GPIOA, &GPIO_InitStruct);
 397              		.loc 1 185 5 is_stmt 1 view .LVU92
 185:Core/Src/stm32f1xx_hal_msp.c ****     HAL_GPIO_Init(GPIOA, &GPIO_InitStruct);
 398              		.loc 1 185 27 is_stmt 0 view .LVU93
 399 004c 0323     		movs	r3, #3
ARM GAS  C:\Users\Stanciu\AppData\Local\Temp\ccEzQwLU.s 			page 12


 400 004e 0593     		str	r3, [sp, #20]
 186:Core/Src/stm32f1xx_hal_msp.c **** 
 401              		.loc 1 186 5 is_stmt 1 view .LVU94
 402 0050 02AE     		add	r6, sp, #8
 403 0052 0D4D     		ldr	r5, .L28+4
 404 0054 3146     		mov	r1, r6
 405 0056 2846     		mov	r0, r5
 406              	.LVL20:
 186:Core/Src/stm32f1xx_hal_msp.c **** 
 407              		.loc 1 186 5 is_stmt 0 view .LVU95
 408 0058 FFF7FEFF 		bl	HAL_GPIO_Init
 409              	.LVL21:
 188:Core/Src/stm32f1xx_hal_msp.c ****     GPIO_InitStruct.Mode = GPIO_MODE_INPUT;
 410              		.loc 1 188 5 is_stmt 1 view .LVU96
 188:Core/Src/stm32f1xx_hal_msp.c ****     GPIO_InitStruct.Mode = GPIO_MODE_INPUT;
 411              		.loc 1 188 25 is_stmt 0 view .LVU97
 412 005c 4FF48063 		mov	r3, #1024
 413 0060 0293     		str	r3, [sp, #8]
 189:Core/Src/stm32f1xx_hal_msp.c ****     GPIO_InitStruct.Pull = GPIO_NOPULL;
 414              		.loc 1 189 5 is_stmt 1 view .LVU98
 189:Core/Src/stm32f1xx_hal_msp.c ****     GPIO_InitStruct.Pull = GPIO_NOPULL;
 415              		.loc 1 189 26 is_stmt 0 view .LVU99
 416 0062 0024     		movs	r4, #0
 417 0064 0394     		str	r4, [sp, #12]
 190:Core/Src/stm32f1xx_hal_msp.c ****     HAL_GPIO_Init(GPIOA, &GPIO_InitStruct);
 418              		.loc 1 190 5 is_stmt 1 view .LVU100
 190:Core/Src/stm32f1xx_hal_msp.c ****     HAL_GPIO_Init(GPIOA, &GPIO_InitStruct);
 419              		.loc 1 190 26 is_stmt 0 view .LVU101
 420 0066 0494     		str	r4, [sp, #16]
 191:Core/Src/stm32f1xx_hal_msp.c **** 
 421              		.loc 1 191 5 is_stmt 1 view .LVU102
 422 0068 3146     		mov	r1, r6
 423 006a 2846     		mov	r0, r5
 424 006c FFF7FEFF 		bl	HAL_GPIO_Init
 425              	.LVL22:
 194:Core/Src/stm32f1xx_hal_msp.c ****     HAL_NVIC_EnableIRQ(USART1_IRQn);
 426              		.loc 1 194 5 view .LVU103
 427 0070 2246     		mov	r2, r4
 428 0072 2146     		mov	r1, r4
 429 0074 2520     		movs	r0, #37
 430 0076 FFF7FEFF 		bl	HAL_NVIC_SetPriority
 431              	.LVL23:
 195:Core/Src/stm32f1xx_hal_msp.c ****   /* USER CODE BEGIN USART1_MspInit 1 */
 432              		.loc 1 195 5 view .LVU104
 433 007a 2520     		movs	r0, #37
 434 007c FFF7FEFF 		bl	HAL_NVIC_EnableIRQ
 435              	.LVL24:
 436              		.loc 1 201 1 is_stmt 0 view .LVU105
 437 0080 C9E7     		b	.L24
 438              	.L29:
 439 0082 00BF     		.align	2
 440              	.L28:
 441 0084 00380140 		.word	1073821696
 442 0088 00080140 		.word	1073809408
 443              		.cfi_endproc
 444              	.LFE69:
 446              		.section	.text.HAL_UART_MspDeInit,"ax",%progbits
ARM GAS  C:\Users\Stanciu\AppData\Local\Temp\ccEzQwLU.s 			page 13


 447              		.align	1
 448              		.global	HAL_UART_MspDeInit
 449              		.syntax unified
 450              		.thumb
 451              		.thumb_func
 453              	HAL_UART_MspDeInit:
 454              	.LVL25:
 455              	.LFB70:
 202:Core/Src/stm32f1xx_hal_msp.c **** 
 203:Core/Src/stm32f1xx_hal_msp.c **** /**
 204:Core/Src/stm32f1xx_hal_msp.c **** * @brief UART MSP De-Initialization
 205:Core/Src/stm32f1xx_hal_msp.c **** * This function freeze the hardware resources used in this example
 206:Core/Src/stm32f1xx_hal_msp.c **** * @param huart: UART handle pointer
 207:Core/Src/stm32f1xx_hal_msp.c **** * @retval None
 208:Core/Src/stm32f1xx_hal_msp.c **** */
 209:Core/Src/stm32f1xx_hal_msp.c **** void HAL_UART_MspDeInit(UART_HandleTypeDef* huart)
 210:Core/Src/stm32f1xx_hal_msp.c **** {
 456              		.loc 1 210 1 is_stmt 1 view -0
 457              		.cfi_startproc
 458              		@ args = 0, pretend = 0, frame = 0
 459              		@ frame_needed = 0, uses_anonymous_args = 0
 460              		.loc 1 210 1 is_stmt 0 view .LVU107
 461 0000 08B5     		push	{r3, lr}
 462              	.LCFI14:
 463              		.cfi_def_cfa_offset 8
 464              		.cfi_offset 3, -8
 465              		.cfi_offset 14, -4
 211:Core/Src/stm32f1xx_hal_msp.c ****   if(huart->Instance==USART1)
 466              		.loc 1 211 3 is_stmt 1 view .LVU108
 467              		.loc 1 211 11 is_stmt 0 view .LVU109
 468 0002 0268     		ldr	r2, [r0]
 469              		.loc 1 211 5 view .LVU110
 470 0004 084B     		ldr	r3, .L34
 471 0006 9A42     		cmp	r2, r3
 472 0008 00D0     		beq	.L33
 473              	.LVL26:
 474              	.L30:
 212:Core/Src/stm32f1xx_hal_msp.c ****   {
 213:Core/Src/stm32f1xx_hal_msp.c ****   /* USER CODE BEGIN USART1_MspDeInit 0 */
 214:Core/Src/stm32f1xx_hal_msp.c **** 
 215:Core/Src/stm32f1xx_hal_msp.c ****   /* USER CODE END USART1_MspDeInit 0 */
 216:Core/Src/stm32f1xx_hal_msp.c ****     /* Peripheral clock disable */
 217:Core/Src/stm32f1xx_hal_msp.c ****     __HAL_RCC_USART1_CLK_DISABLE();
 218:Core/Src/stm32f1xx_hal_msp.c **** 
 219:Core/Src/stm32f1xx_hal_msp.c ****     /**USART1 GPIO Configuration
 220:Core/Src/stm32f1xx_hal_msp.c ****     PA9     ------> USART1_TX
 221:Core/Src/stm32f1xx_hal_msp.c ****     PA10     ------> USART1_RX
 222:Core/Src/stm32f1xx_hal_msp.c ****     */
 223:Core/Src/stm32f1xx_hal_msp.c ****     HAL_GPIO_DeInit(GPIOA, GPIO_PIN_9|GPIO_PIN_10);
 224:Core/Src/stm32f1xx_hal_msp.c **** 
 225:Core/Src/stm32f1xx_hal_msp.c ****     /* USART1 interrupt DeInit */
 226:Core/Src/stm32f1xx_hal_msp.c ****     HAL_NVIC_DisableIRQ(USART1_IRQn);
 227:Core/Src/stm32f1xx_hal_msp.c ****   /* USER CODE BEGIN USART1_MspDeInit 1 */
 228:Core/Src/stm32f1xx_hal_msp.c **** 
 229:Core/Src/stm32f1xx_hal_msp.c ****   /* USER CODE END USART1_MspDeInit 1 */
 230:Core/Src/stm32f1xx_hal_msp.c ****   }
 231:Core/Src/stm32f1xx_hal_msp.c **** 
ARM GAS  C:\Users\Stanciu\AppData\Local\Temp\ccEzQwLU.s 			page 14


 232:Core/Src/stm32f1xx_hal_msp.c **** }
 475              		.loc 1 232 1 view .LVU111
 476 000a 08BD     		pop	{r3, pc}
 477              	.LVL27:
 478              	.L33:
 217:Core/Src/stm32f1xx_hal_msp.c **** 
 479              		.loc 1 217 5 is_stmt 1 view .LVU112
 480 000c 074A     		ldr	r2, .L34+4
 481 000e 9369     		ldr	r3, [r2, #24]
 482 0010 23F48043 		bic	r3, r3, #16384
 483 0014 9361     		str	r3, [r2, #24]
 223:Core/Src/stm32f1xx_hal_msp.c **** 
 484              		.loc 1 223 5 view .LVU113
 485 0016 4FF4C061 		mov	r1, #1536
 486 001a 0548     		ldr	r0, .L34+8
 487              	.LVL28:
 223:Core/Src/stm32f1xx_hal_msp.c **** 
 488              		.loc 1 223 5 is_stmt 0 view .LVU114
 489 001c FFF7FEFF 		bl	HAL_GPIO_DeInit
 490              	.LVL29:
 226:Core/Src/stm32f1xx_hal_msp.c ****   /* USER CODE BEGIN USART1_MspDeInit 1 */
 491              		.loc 1 226 5 is_stmt 1 view .LVU115
 492 0020 2520     		movs	r0, #37
 493 0022 FFF7FEFF 		bl	HAL_NVIC_DisableIRQ
 494              	.LVL30:
 495              		.loc 1 232 1 is_stmt 0 view .LVU116
 496 0026 F0E7     		b	.L30
 497              	.L35:
 498              		.align	2
 499              	.L34:
 500 0028 00380140 		.word	1073821696
 501 002c 00100240 		.word	1073876992
 502 0030 00080140 		.word	1073809408
 503              		.cfi_endproc
 504              	.LFE70:
 506              		.text
 507              	.Letext0:
 508              		.file 2 "Drivers/CMSIS/Device/ST/STM32F1xx/Include/stm32f103xb.h"
 509              		.file 3 "D:\\CubeCLT\\STM32CubeCLT_1.21.0\\GNU-tools-for-STM32\\bin/../lib/gcc/arm-none-eabi/14.3.
 510              		.file 4 "D:\\CubeCLT\\STM32CubeCLT_1.21.0\\GNU-tools-for-STM32\\bin/../lib/gcc/arm-none-eabi/14.3.
 511              		.file 5 "Drivers/STM32F1xx_HAL_Driver/Inc/stm32f1xx_hal_def.h"
 512              		.file 6 "Drivers/STM32F1xx_HAL_Driver/Inc/stm32f1xx_hal_gpio.h"
 513              		.file 7 "Drivers/STM32F1xx_HAL_Driver/Inc/stm32f1xx_hal_dma.h"
 514              		.file 8 "Drivers/STM32F1xx_HAL_Driver/Inc/stm32f1xx_hal_tim.h"
 515              		.file 9 "Drivers/STM32F1xx_HAL_Driver/Inc/stm32f1xx_hal_uart.h"
 516              		.file 10 "Drivers/STM32F1xx_HAL_Driver/Inc/stm32f1xx_hal_cortex.h"
ARM GAS  C:\Users\Stanciu\AppData\Local\Temp\ccEzQwLU.s 			page 15

